(lp0
VmyNanoProdMc_NANO_n_0.djctd
p1
aVmyNanoProdMc_NANO_n_1.djctd
p2
aVmyNanoProdMc_NANO_n_2.djctd
p3
aVmyNanoProdMc_NANO_n_3.djctd
p4
aVmyNanoProdMc_NANO_n_4.djctd
p5
aVmyNanoProdMc_NANO_n_5.djctd
p6
aVmyNanoProdMc_NANO_n_6.djctd
p7
aVmyNanoProdMc_NANO_n_7.djctd
p8
a.(lp0
V/eos/user/c/clange/PFNano/myNanoProdMc_NANO.root
p1
a.cTrainData_jet
TrainData_jet
p0
.(dp0
.L1L
.I00
.(dp0
.