(lp0
VmyNanoProdMc_NANO_n_34.djctd
p1
aVmyNanoProdMc_NANO_n_35.djctd
p2
aVmyNanoProdMc_NANO_n_36.djctd
p3
aVmyNanoProdMc_NANO_n_37.djctd
p4
aVmyNanoProdMc_NANO_n_38.djctd
p5
aVmyNanoProdMc_NANO_n_39.djctd
p6
a.(lp0
.cTrainData_jet
TrainData_jet
p0
.(dp0
.L5L
.I00
.(dp0
.